; Function Attrs: mustprogress nounwind uwtable
define internal fastcc void @_ZNSt16allocator_traitsISaIN12_GLOBAL__N_113SymbolSectionEEE9constructIS1_JS1_EEEvRS2_PT_DpOT0_(ptr noundef nonnull %0, ptr noundef nonnull align 8 dereferenceable(280) %1) unnamed_addr #0 align 2 {
  %3 = getelementptr inbounds nuw i8, ptr %0, i64 16
  tail call void @_ZN4llvm15SmallVectorBaseIjEC2EPvm(ptr noundef nonnull align 8 dereferenceable(280) %0, ptr noundef nonnull %3, i64 noundef 5) #18
  %4 = tail call noundef zeroext i1 @_ZNK4llvm15SmallVectorBaseIjE5emptyEv(ptr noundef nonnull align 8 dereferenceable(280) %1) #18
  br i1 %4, label %_ZNSt15__new_allocatorIN12_GLOBAL__N_113SymbolSectionEE9constructIS1_JS1_EEEvPT_DpOT0_.exit, label %5

5:                                                ; preds = %2
  %6 = tail call noundef nonnull align 8 dereferenceable(16) ptr @_ZN4llvm15SmallVectorImplINS_5MachO6TargetEEaSEOS3_(ptr noundef nonnull align 8 dereferenceable(280) %0, ptr noundef nonnull align 8 dereferenceable(280) %1)
  br label %_ZNSt15__new_allocatorIN12_GLOBAL__N_113SymbolSectionEE9constructIS1_JS1_EEEvPT_DpOT0_.exit

_ZNSt15__new_allocatorIN12_GLOBAL__N_113SymbolSectionEE9constructIS1_JS1_EEEvPT_DpOT0_.exit: ; preds = %2, %5
  %7 = getelementptr inbounds nuw i8, ptr %0, i64 136
  %8 = getelementptr inbounds nuw i8, ptr %1, i64 136
  %9 = load ptr, ptr %8, align 8
  store ptr %9, ptr %7, align 8
  %10 = getelementptr inbounds nuw i8, ptr %0, i64 144
  %11 = getelementptr inbounds nuw i8, ptr %1, i64 144
  %12 = load ptr, ptr %11, align 8
  store ptr %12, ptr %10, align 8
  %13 = getelementptr inbounds nuw i8, ptr %0, i64 152
  %14 = getelementptr inbounds nuw i8, ptr %1, i64 152
  %15 = load ptr, ptr %14, align 8
  store ptr %15, ptr %13, align 8
  tail call void @llvm.memset.p0.i64(ptr noundef nonnull align 8 dereferenceable(24) %8, i8 0, i64 24, i1 false)
  %16 = getelementptr inbounds nuw i8, ptr %0, i64 160
  %17 = getelementptr inbounds nuw i8, ptr %1, i64 160
  %18 = load ptr, ptr %17, align 8
  store ptr %18, ptr %16, align 8
  %19 = getelementptr inbounds nuw i8, ptr %0, i64 168
  %20 = getelementptr inbounds nuw i8, ptr %1, i64 168
  %21 = load ptr, ptr %20, align 8
  store ptr %21, ptr %19, align 8
  %22 = getelementptr inbounds nuw i8, ptr %0, i64 176
  %23 = getelementptr inbounds nuw i8, ptr %1, i64 176
  %24 = load ptr, ptr %23, align 8
  store ptr %24, ptr %22, align 8
  tail call void @llvm.memset.p0.i64(ptr noundef nonnull align 8 dereferenceable(24) %17, i8 0, i64 24, i1 false)
  %25 = getelementptr inbounds nuw i8, ptr %0, i64 184
  %26 = getelementptr inbounds nuw i8, ptr %1, i64 184
  %27 = load ptr, ptr %26, align 8
  store ptr %27, ptr %25, align 8
  %28 = getelementptr inbounds nuw i8, ptr %0, i64 192
  %29 = getelementptr inbounds nuw i8, ptr %1, i64 192
  %30 = load ptr, ptr %29, align 8
  store ptr %30, ptr %28, align 8
  %31 = getelementptr inbounds nuw i8, ptr %0, i64 200
  %32 = getelementptr inbounds nuw i8, ptr %1, i64 200
  %33 = load ptr, ptr %32, align 8
  store ptr %33, ptr %31, align 8
  tail call void @llvm.memset.p0.i64(ptr noundef nonnull align 8 dereferenceable(24) %26, i8 0, i64 24, i1 false)
  %34 = getelementptr inbounds nuw i8, ptr %0, i64 208
  %35 = getelementptr inbounds nuw i8, ptr %1, i64 208
  %36 = load ptr, ptr %35, align 8
  store ptr %36, ptr %34, align 8
  %37 = getelementptr inbounds nuw i8, ptr %0, i64 216
  %38 = getelementptr inbounds nuw i8, ptr %1, i64 216
  %39 = load ptr, ptr %38, align 8
  store ptr %39, ptr %37, align 8
  %40 = getelementptr inbounds nuw i8, ptr %0, i64 224
  %41 = getelementptr inbounds nuw i8, ptr %1, i64 224
  %42 = load ptr, ptr %41, align 8
  store ptr %42, ptr %40, align 8
  tail call void @llvm.memset.p0.i64(ptr noundef nonnull align 8 dereferenceable(24) %35, i8 0, i64 24, i1 false)
  %43 = getelementptr inbounds nuw i8, ptr %0, i64 232
  %44 = getelementptr inbounds nuw i8, ptr %1, i64 232
  %45 = load ptr, ptr %44, align 8
  store ptr %45, ptr %43, align 8
  %46 = getelementptr inbounds nuw i8, ptr %0, i64 240
  %47 = getelementptr inbounds nuw i8, ptr %1, i64 240
  %48 = load ptr, ptr %47, align 8
  store ptr %48, ptr %46, align 8
  %49 = getelementptr inbounds nuw i8, ptr %0, i64 248
  %50 = getelementptr inbounds nuw i8, ptr %1, i64 248
  %51 = load ptr, ptr %50, align 8
  store ptr %51, ptr %49, align 8
  tail call void @llvm.memset.p0.i64(ptr noundef nonnull align 8 dereferenceable(24) %44, i8 0, i64 24, i1 false)
  %52 = getelementptr inbounds nuw i8, ptr %0, i64 256
  %53 = getelementptr inbounds nuw i8, ptr %1, i64 256
  %54 = load ptr, ptr %53, align 8
  store ptr %54, ptr %52, align 8
  %55 = getelementptr inbounds nuw i8, ptr %0, i64 264
  %56 = getelementptr inbounds nuw i8, ptr %1, i64 264
  %57 = load ptr, ptr %56, align 8
  store ptr %57, ptr %55, align 8
  %58 = getelementptr inbounds nuw i8, ptr %0, i64 272
  %59 = getelementptr inbounds nuw i8, ptr %1, i64 272
  %60 = load ptr, ptr %59, align 8
  store ptr %60, ptr %58, align 8
  tail call void @llvm.memset.p0.i64(ptr noundef nonnull align 8 dereferenceable(24) %53, i8 0, i64 24, i1 false)
  ret void
}